; Function Attrs: mustprogress nounwind uwtable
define hidden void @_ZN17NativeMovConstReg5printEv(ptr noundef nonnull align 1 dereferenceable(1) %0) local_unnamed_addr #0 align 2 {
  %2 = load ptr, ptr @tty, align 8
  %3 = ptrtoint ptr %0 to i64
  %4 = load i8, ptr %0, align 1
  %5 = icmp eq i8 %4, -43
  %6 = select i1 %5, i64 3, i64 2
  %7 = getelementptr inbounds i8, ptr %0, i64 %6
  %8 = load i64, ptr %7, align 8
  tail call void (ptr, ptr, ...) @_ZN12outputStream8print_crEPKcz(ptr noundef nonnull align 8 dereferenceable(56) %2, ptr noundef nonnull @.str.14, i64 noundef %3, i64 noundef %8) #7
  ret void
}